; ModuleID = 'source-C-CXX/41/702.c'
source_filename = "source-C-CXX/41/702.c"
target datalayout = "e-m:e-p270:32:32-p271:32:32-p272:64:64-i64:64-f80:128-n8:16:32:64-S128"
target triple = "x86_64-pc-linux-gnu"

%struct._IO_FILE = type { i32, i8*, i8*, i8*, i8*, i8*, i8*, i8*, i8*, i8*, i8*, i8*, %struct._IO_marker*, %struct._IO_FILE*, i32, i32, i64, i16, i8, [1 x i8], i8*, i64, %struct._IO_codecvt*, %struct._IO_wide_data*, %struct._IO_FILE*, i8*, i64, i32, [20 x i8] }
%struct._IO_marker = type opaque
%struct._IO_codecvt = type opaque
%struct._IO_wide_data = type opaque

@.str = private unnamed_addr constant [3 x i8] c"%d\00", align 1
@.str.1 = private unnamed_addr constant [4 x i8] c" %d\00", align 1
@stdin = external local_unnamed_addr global %struct._IO_FILE*, align 8

; Function Attrs: nofree nounwind sspstrong uwtable
define dso_local i32 @main() local_unnamed_addr #0 {
  %1 = alloca i32, align 4
  %2 = alloca i32, align 4
  %3 = alloca [100000 x i32], align 16
  %4 = bitcast i32* %1 to i8*
  call void @llvm.lifetime.start.p0i8(i64 4, i8* nonnull %4) #3
  %5 = bitcast i32* %2 to i8*
  call void @llvm.lifetime.start.p0i8(i64 4, i8* nonnull %5) #3
  %6 = bitcast [100000 x i32]* %3 to i8*
  call void @llvm.lifetime.start.p0i8(i64 400000, i8* nonnull %6) #3
  %7 = call i32 (i8*, ...) @__isoc99_scanf(i8* getelementptr inbounds ([3 x i8], [3 x i8]* @.str, i64 0, i64 0), i32* nonnull %2)
  %8 = load i32, i32* %2, align 4, !tbaa !5
  %9 = icmp sgt i32 %8, 0
  br i1 %9, label %17, label %10

10:                                               ; preds = %17, %0
  %11 = call i32 (i8*, ...) @__isoc99_scanf(i8* getelementptr inbounds ([3 x i8], [3 x i8]* @.str, i64 0, i64 0), i32* nonnull %1)
  %12 = load i32, i32* %2, align 4, !tbaa !5
  %13 = load i32, i32* %1, align 4
  %14 = icmp sgt i32 %12, 0
  br i1 %14, label %15, label %37

15:                                               ; preds = %10
  %16 = zext i32 %12 to i64
  br label %25

17:                                               ; preds = %0, %17
  %18 = phi i64 [ %21, %17 ], [ 0, %0 ]
  %19 = getelementptr inbounds [100000 x i32], [100000 x i32]* %3, i64 0, i64 %18
  %20 = call i32 (i8*, ...) @__isoc99_scanf(i8* getelementptr inbounds ([3 x i8], [3 x i8]* @.str, i64 0, i64 0), i32* nonnull %19)
  %21 = add nuw nsw i64 %18, 1
  %22 = load i32, i32* %2, align 4, !tbaa !5
  %23 = sext i32 %22 to i64
  %24 = icmp slt i64 %21, %23
  br i1 %24, label %17, label %10, !llvm.loop !9

25:                                               ; preds = %15, %34
  %26 = phi i64 [ 0, %15 ], [ %35, %34 ]
  %27 = getelementptr inbounds [100000 x i32], [100000 x i32]* %3, i64 0, i64 %26
  %28 = load i32, i32* %27, align 4, !tbaa !5
  %29 = icmp eq i32 %28, %13
  br i1 %29, label %34, label %30

30:                                               ; preds = %25
  %31 = trunc i64 %26 to i32
  %32 = call i32 (i8*, ...) @printf(i8* nonnull dereferenceable(1) getelementptr inbounds ([3 x i8], [3 x i8]* @.str, i64 0, i64 0), i32 %28)
  %33 = load i32, i32* %2, align 4, !tbaa !5
  br label %37

34:                                               ; preds = %25
  %35 = add nuw nsw i64 %26, 1
  %36 = icmp eq i64 %35, %16
  br i1 %36, label %37, label %25, !llvm.loop !11

37:                                               ; preds = %34, %10, %30
  %38 = phi i32 [ %33, %30 ], [ %12, %10 ], [ %12, %34 ]
  %39 = phi i32 [ %31, %30 ], [ 0, %10 ], [ %12, %34 ]
  %40 = add i32 %39, 1
  %41 = icmp slt i32 %40, %38
  br i1 %41, label %42, label %44

42:                                               ; preds = %37
  %43 = zext i32 %40 to i64
  br label %45

44:                                               ; preds = %53, %37
  call void @llvm.lifetime.end.p0i8(i64 400000, i8* nonnull %6) #3
  call void @llvm.lifetime.end.p0i8(i64 4, i8* nonnull %5) #3
  call void @llvm.lifetime.end.p0i8(i64 4, i8* nonnull %4) #3
  ret i32 0

45:                                               ; preds = %42, %53
  %46 = phi i64 [ %43, %42 ], [ %58, %53 ]
  %47 = getelementptr inbounds [100000 x i32], [100000 x i32]* %3, i64 0, i64 %46
  %48 = load i32, i32* %47, align 4, !tbaa !5
  %49 = load i32, i32* %1, align 4, !tbaa !5
  %50 = icmp eq i32 %48, %49
  br i1 %50, label %53, label %51

51:                                               ; preds = %45
  %52 = call i32 (i8*, ...) @printf(i8* nonnull dereferenceable(1) getelementptr inbounds ([4 x i8], [4 x i8]* @.str.1, i64 0, i64 0), i32 %48)
  br label %53

53:                                               ; preds = %51, %45
  %54 = load %struct._IO_FILE*, %struct._IO_FILE** @stdin, align 8, !tbaa !12
  %55 = call i32 @getc(%struct._IO_FILE* %54) #3
  %56 = load %struct._IO_FILE*, %struct._IO_FILE** @stdin, align 8, !tbaa !12
  %57 = call i32 @getc(%struct._IO_FILE* %56) #3
  %58 = add nuw nsw i64 %46, 1
  %59 = load i32, i32* %2, align 4, !tbaa !5
  %60 = trunc i64 %58 to i32
  %61 = icmp sgt i32 %59, %60
  br i1 %61, label %45, label %44, !llvm.loop !14
}

; Function Attrs: argmemonly mustprogress nofree nosync nounwind willreturn
declare void @llvm.lifetime.start.p0i8(i64 immarg, i8* nocapture) #1

; Function Attrs: nofree nounwind
declare noundef i32 @__isoc99_scanf(i8* nocapture noundef readonly, ...) local_unnamed_addr #2

; Function Attrs: argmemonly mustprogress nofree nosync nounwind willreturn
declare void @llvm.lifetime.end.p0i8(i64 immarg, i8* nocapture) #1

; Function Attrs: nofree nounwind
declare noundef i32 @printf(i8* nocapture noundef readonly, ...) local_unnamed_addr #2

; Function Attrs: nofree nounwind
declare noundef i32 @getc(%struct._IO_FILE* nocapture noundef) local_unnamed_addr #2


!llvm.module.flags = !{!0, !1, !2, !3}
!llvm.ident = !{!4}

!0 = !{i32 1, !"wchar_size", i32 4}
!1 = !{i32 7, !"PIC Level", i32 2}
!2 = !{i32 7, !"PIE Level", i32 2}
!3 = !{i32 7, !"uwtable", i32 1}
!4 = !{!"clang version 13.0.0"}
!5 = !{!6, !6, i64 0}
!6 = !{!"int", !7, i64 0}
!7 = !{!"omnipotent char", !8, i64 0}
!8 = !{!"Simple C/C++ TBAA"}
!9 = distinct !{!9, !10}
!10 = !{!"llvm.loop.mustprogress"}
!11 = distinct !{!11, !10}
!12 = !{!13, !13, i64 0}
!13 = !{!"any pointer", !7, i64 0}
!14 = distinct !{!14, !10}
